	.file	"SDL_comboios.c"
	.text
.Ltext0:
	.comm	debug,1,1
	.globl	g_pWindow
	.bss
	.align 8
	.type	g_pWindow, @object
	.size	g_pWindow, 8
g_pWindow:
	.zero	8
	.globl	g_pRenderer
	.align 8
	.type	g_pRenderer, @object
	.size	g_pRenderer, 8
g_pRenderer:
	.zero	8
	.text
	.globl	PosInicial
	.type	PosInicial, @function
PosInicial:
.LFB3671:
	.file 1 "/media/sf_Prog/ProjetoFinal/SDL_comboios.c"
	.loc 1 8 0
	.cfi_startproc
	pushq	%rbp
	.cfi_def_cfa_offset 16
	.cfi_offset 6, -16
	movq	%rsp, %rbp
	.cfi_def_cfa_register 6
	subq	$16, %rsp
	movq	%rdi, -8(%rbp)
	movq	%rsi, -16(%rbp)
	.loc 1 9 0
	movq	-8(%rbp), %rax
	leaq	21(%rax), %rdx
	movq	-8(%rbp), %rax
	leaq	16(%rax), %rcx
	movq	-16(%rbp), %rax
	movq	%rcx, %rsi
	movq	%rax, %rdi
	call	procuraID@PLT
	movq	%rax, %rdx
	movq	-8(%rbp), %rax
	movq	%rdx, 48(%rax)
	.loc 1 10 0
	movq	-8(%rbp), %rax
	movq	48(%rax), %rax
	movl	16(%rax), %edx
	movq	-8(%rbp), %rax
	movl	%edx, 28(%rax)
	.loc 1 11 0
	movq	-8(%rbp), %rax
	movq	48(%rax), %rax
	movl	20(%rax), %edx
	movq	-8(%rbp), %rax
	movl	%edx, 32(%rax)
	.loc 1 12 0
	nop
	leave
	.cfi_def_cfa 7, 8
	ret
	.cfi_endproc
.LFE3671:
	.size	PosInicial, .-PosInicial
	.globl	InicComboios
	.type	InicComboios, @function
InicComboios:
.LFB3672:
	.loc 1 13 0
	.cfi_startproc
	pushq	%rbp
	.cfi_def_cfa_offset 16
	.cfi_offset 6, -16
	movq	%rsp, %rbp
	.cfi_def_cfa_register 6
	subq	$64, %rsp
	movq	%rdi, -40(%rbp)
	movq	%rsi, -48(%rbp)
	movq	%rdx, -56(%rbp)
	.loc 1 17 0
	movl	$0, -20(%rbp)
	jmp	.L3
.L9:
	.loc 1 18 0
	movl	$4, -16(%rbp)
	.loc 1 19 0
	movl	-20(%rbp), %eax
	cltq
	leaq	0(,%rax,8), %rdx
	movq	-40(%rbp), %rax
	addq	%rdx, %rax
	movq	(%rax), %rax
	movq	%rax, -8(%rbp)
	jmp	.L4
.L7:
	.loc 1 20 0
	movq	-8(%rbp), %rax
	movb	$0, 56(%rax)
	.loc 1 21 0
	movq	-56(%rbp), %rdx
	movq	-8(%rbp), %rax
	movq	%rdx, %rsi
	movq	%rax, %rdi
	call	PosInicial
	.loc 1 22 0
	movl	-16(%rbp), %eax
	leal	(%rax,%rax), %edx
	movq	-8(%rbp), %rax
	movl	8(%rax), %eax
	imull	%edx, %eax
	movl	%eax, -12(%rbp)
	jmp	.L5
.L6:
	.loc 1 23 0 discriminator 3
	movq	-56(%rbp), %rdx
	movq	-8(%rbp), %rax
	movq	%rdx, %rsi
	movq	%rax, %rdi
	call	moveCarr
	.loc 1 22 0 discriminator 3
	subl	$1, -12(%rbp)
.L5:
	.loc 1 22 0 is_stmt 0 discriminator 1
	cmpl	$0, -12(%rbp)
	jg	.L6
	.loc 1 25 0 is_stmt 1 discriminator 2
	movq	-8(%rbp), %rax
	movl	12(%rax), %eax
	cltq
	salq	$4, %rax
	movq	%rax, %rdx
	movq	-48(%rbp), %rax
	addq	%rdx, %rax
	movl	12(%rax), %eax
	movzbl	%al, %r8d
	movq	-8(%rbp), %rax
	movl	12(%rax), %eax
	cltq
	salq	$4, %rax
	movq	%rax, %rdx
	movq	-48(%rbp), %rax
	addq	%rdx, %rax
	movl	8(%rax), %eax
	movzbl	%al, %edi
	movq	-8(%rbp), %rax
	movl	12(%rax), %eax
	cltq
	salq	$4, %rax
	movq	%rax, %rdx
	movq	-48(%rbp), %rax
	addq	%rdx, %rax
	movl	4(%rax), %eax
	movzbl	%al, %r9d
	movq	-8(%rbp), %rax
	movl	12(%rax), %eax
	cltq
	salq	$4, %rax
	movq	%rax, %rdx
	movq	-48(%rbp), %rax
	addq	%rdx, %rax
	movl	(%rax), %eax
	movzbl	%al, %r10d
	movq	-8(%rbp), %rax
	movl	8(%rax), %eax
	movswl	%ax, %ecx
	movq	-8(%rbp), %rax
	movl	32(%rax), %eax
	movswl	%ax, %edx
	movq	-8(%rbp), %rax
	movl	28(%rax), %eax
	movswl	%ax, %esi
	movq	g_pRenderer(%rip), %rax
	pushq	%r8
	pushq	%rdi
	movl	%r10d, %r8d
	movq	%rax, %rdi
	call	filledCircleRGBA@PLT
	addq	$16, %rsp
	.loc 1 19 0 discriminator 2
	movq	-8(%rbp), %rax
	movq	64(%rax), %rax
	movq	%rax, -8(%rbp)
	subl	$1, -16(%rbp)
.L4:
	.loc 1 19 0 is_stmt 0 discriminator 1
	cmpq	$0, -8(%rbp)
	jne	.L7
	.loc 1 17 0 is_stmt 1 discriminator 2
	addl	$1, -20(%rbp)
.L3:
	.loc 1 17 0 is_stmt 0 discriminator 1
	cmpl	$199, -20(%rbp)
	jg	.L8
	.loc 1 17 0 discriminator 3
	movl	-20(%rbp), %eax
	cltq
	leaq	0(,%rax,8), %rdx
	movq	-40(%rbp), %rax
	addq	%rdx, %rax
	movq	(%rax), %rax
	testq	%rax, %rax
	jne	.L9
.L8:
	.loc 1 28 0 is_stmt 1
	movq	-40(%rbp), %rax
	movq	%rax, %rdi
	call	verificaColisoes@PLT
	cmpl	$1, %eax
	jne	.L10
	.loc 1 29 0
	movl	$1, %eax
	jmp	.L11
.L10:
	.loc 1 32 0
	movl	$0, %eax
.L11:
	.loc 1 35 0
	leave
	.cfi_def_cfa 7, 8
	ret
	.cfi_endproc
.LFE3672:
	.size	InicComboios, .-InicComboios
	.section	.rodata
.LC0:
	.string	"EST"
	.text
	.globl	moveCarr
	.type	moveCarr, @function
moveCarr:
.LFB3673:
	.loc 1 36 0
	.cfi_startproc
	pushq	%rbp
	.cfi_def_cfa_offset 16
	.cfi_offset 6, -16
	movq	%rsp, %rbp
	.cfi_def_cfa_register 6
	subq	$48, %rsp
	movq	%rdi, -40(%rbp)
	movq	%rsi, -48(%rbp)
	.loc 1 39 0
	movq	-40(%rbp), %rax
	movl	40(%rax), %eax
	testl	%eax, %eax
	jne	.L13
	.loc 1 39 0 is_stmt 0 discriminator 1
	movq	-40(%rbp), %rax
	movl	12(%rax), %edx
	movq	-40(%rbp), %rax
	movq	48(%rax), %rax
	movl	24(%rax), %eax
	cmpl	%eax, %edx
	jne	.L13
	.loc 1 39 0 discriminator 2
	movq	-40(%rbp), %rax
	movq	48(%rax), %rax
	addq	$28, %rax
	leaq	.LC0(%rip), %rsi
	movq	%rax, %rdi
	call	strcmp@PLT
	testl	%eax, %eax
	jne	.L13
	.loc 1 41 0 is_stmt 1
	movq	-40(%rbp), %rax
	movl	$8, 12(%rax)
.L13:
	.loc 1 44 0
	movq	-40(%rbp), %rax
	movq	48(%rax), %rax
	movq	48(%rax), %rax
	testq	%rax, %rax
	je	.L14
	.loc 1 45 0
	movq	-40(%rbp), %rax
	movq	48(%rax), %rax
	movl	16(%rax), %eax
	cvtsi2ss	%eax, %xmm0
	movss	%xmm0, -24(%rbp)
	.loc 1 46 0
	movq	-40(%rbp), %rax
	movq	48(%rax), %rax
	movl	20(%rax), %eax
	cvtsi2ss	%eax, %xmm0
	movss	%xmm0, -20(%rbp)
	.loc 1 47 0
	movq	-40(%rbp), %rax
	movq	48(%rax), %rax
	movq	48(%rax), %rax
	movl	16(%rax), %eax
	cvtsi2ss	%eax, %xmm0
	movss	%xmm0, -16(%rbp)
	.loc 1 48 0
	movq	-40(%rbp), %rax
	movq	48(%rax), %rax
	movq	48(%rax), %rax
	movl	20(%rax), %eax
	cvtsi2ss	%eax, %xmm0
	movss	%xmm0, -12(%rbp)
	.loc 1 50 0
	movss	-16(%rbp), %xmm0
	subss	-24(%rbp), %xmm0
	pxor	%xmm1, %xmm1
	ucomiss	%xmm1, %xmm0
	jp	.L26
	pxor	%xmm1, %xmm1
	ucomiss	%xmm1, %xmm0
	je	.L29
.L26:
	.loc 1 51 0
	movss	-12(%rbp), %xmm0
	subss	-20(%rbp), %xmm0
	movss	-16(%rbp), %xmm1
	subss	-24(%rbp), %xmm1
	divss	%xmm1, %xmm0
	movss	%xmm0, -8(%rbp)
	.loc 1 52 0
	movss	-8(%rbp), %xmm0
	mulss	-24(%rbp), %xmm0
	movss	-20(%rbp), %xmm1
	subss	%xmm0, %xmm1
	movaps	%xmm1, %xmm0
	movss	%xmm0, -4(%rbp)
	.loc 1 54 0
	movss	-16(%rbp), %xmm0
	ucomiss	-24(%rbp), %xmm0
	jbe	.L30
	.loc 1 55 0
	movq	-40(%rbp), %rax
	movl	28(%rax), %eax
	leal	1(%rax), %edx
	movq	-40(%rbp), %rax
	movl	%edx, 28(%rax)
	jmp	.L19
.L30:
	.loc 1 57 0
	movq	-40(%rbp), %rax
	movl	28(%rax), %eax
	leal	-1(%rax), %edx
	movq	-40(%rbp), %rax
	movl	%edx, 28(%rax)
.L19:
	.loc 1 58 0
	movq	-40(%rbp), %rax
	movl	28(%rax), %eax
	cvtsi2ss	%eax, %xmm0
	mulss	-8(%rbp), %xmm0
	addss	-4(%rbp), %xmm0
	cvttss2si	%xmm0, %edx
	movq	-40(%rbp), %rax
	movl	%edx, 32(%rax)
	.loc 1 59 0
	movq	-40(%rbp), %rax
	movl	28(%rax), %edx
	movq	-40(%rbp), %rax
	movq	48(%rax), %rax
	movq	48(%rax), %rax
	movl	16(%rax), %eax
	cmpl	%eax, %edx
	jne	.L32
	.loc 1 60 0
	movq	-40(%rbp), %rax
	movq	48(%rax), %rax
	movq	48(%rax), %rdx
	movq	-40(%rbp), %rax
	movq	%rdx, 48(%rax)
	.loc 1 79 0
	jmp	.L32
.L29:
	.loc 1 64 0
	movss	-12(%rbp), %xmm0
	ucomiss	-20(%rbp), %xmm0
	jbe	.L31
	.loc 1 65 0
	movq	-40(%rbp), %rax
	movl	32(%rax), %eax
	leal	1(%rax), %edx
	movq	-40(%rbp), %rax
	movl	%edx, 32(%rax)
	jmp	.L24
.L31:
	.loc 1 67 0
	movq	-40(%rbp), %rax
	movl	32(%rax), %eax
	leal	-1(%rax), %edx
	movq	-40(%rbp), %rax
	movl	%edx, 32(%rax)
.L24:
	.loc 1 69 0
	movq	-40(%rbp), %rax
	movl	32(%rax), %edx
	movq	-40(%rbp), %rax
	movq	48(%rax), %rax
	movq	48(%rax), %rax
	movl	20(%rax), %eax
	cmpl	%eax, %edx
	jne	.L32
	.loc 1 70 0
	movq	-40(%rbp), %rax
	movq	48(%rax), %rax
	movq	48(%rax), %rdx
	movq	-40(%rbp), %rax
	movq	%rdx, 48(%rax)
	.loc 1 79 0
	jmp	.L32
.L14:
	.loc 1 75 0
	movq	-40(%rbp), %rax
	movl	36(%rax), %eax
	leal	-1(%rax), %edx
	movq	-40(%rbp), %rax
	movl	%edx, 36(%rax)
	.loc 1 76 0
	movq	-48(%rbp), %rdx
	movq	-40(%rbp), %rax
	movq	%rdx, %rsi
	movq	%rax, %rdi
	call	PosInicial
.L32:
	.loc 1 79 0
	nop
	leave
	.cfi_def_cfa 7, 8
	ret
	.cfi_endproc
.LFE3673:
	.size	moveCarr, .-moveCarr
	.globl	trajectoriaComb
	.type	trajectoriaComb, @function
trajectoriaComb:
.LFB3674:
	.loc 1 80 0
	.cfi_startproc
	pushq	%rbp
	.cfi_def_cfa_offset 16
	.cfi_offset 6, -16
	movq	%rsp, %rbp
	.cfi_def_cfa_register 6
	subq	$48, %rsp
	movq	%rdi, -24(%rbp)
	movq	%rsi, -32(%rbp)
	movq	%rdx, -40(%rbp)
	.loc 1 85 0
	movq	-24(%rbp), %rax
	movq	%rax, -8(%rbp)
	jmp	.L34
.L39:
	.loc 1 86 0
	movq	-8(%rbp), %rax
	movl	12(%rax), %eax
	movl	%eax, -16(%rbp)
	.loc 1 88 0
	movq	-8(%rbp), %rax
	movzbl	56(%rax), %eax
	xorl	$1, %eax
	testb	%al, %al
	je	.L35
	.loc 1 89 0
	movq	-40(%rbp), %rdx
	movq	-8(%rbp), %rax
	movq	%rdx, %rsi
	movq	%rax, %rdi
	call	moveCarr
	jmp	.L36
.L35:
	.loc 1 91 0
	movq	-8(%rbp), %rax
	movl	40(%rax), %eax
	cmpl	$1, %eax
	jne	.L36
	.loc 1 92 0
	call	rand@PLT
	movl	%eax, %edx
	movl	%edx, %eax
	sarl	$31, %eax
	shrl	$31, %eax
	addl	%eax, %edx
	andl	$1, %edx
	subl	%eax, %edx
	movl	%edx, %eax
	movl	%eax, -12(%rbp)
	.loc 1 94 0
	cmpl	$1, -12(%rbp)
	jne	.L36
	.loc 1 95 0
	movq	-8(%rbp), %rax
	movl	$9, 12(%rax)
.L36:
	.loc 1 98 0
	movq	-8(%rbp), %rax
	movl	36(%rax), %eax
	testl	%eax, %eax
	jle	.L37
	.loc 1 99 0
	movq	-8(%rbp), %rax
	movl	12(%rax), %eax
	cltq
	salq	$4, %rax
	movq	%rax, %rdx
	movq	-32(%rbp), %rax
	addq	%rdx, %rax
	movl	12(%rax), %eax
	movzbl	%al, %r8d
	movq	-8(%rbp), %rax
	movl	12(%rax), %eax
	cltq
	salq	$4, %rax
	movq	%rax, %rdx
	movq	-32(%rbp), %rax
	addq	%rdx, %rax
	movl	8(%rax), %eax
	movzbl	%al, %edi
	movq	-8(%rbp), %rax
	movl	12(%rax), %eax
	cltq
	salq	$4, %rax
	movq	%rax, %rdx
	movq	-32(%rbp), %rax
	addq	%rdx, %rax
	movl	4(%rax), %eax
	movzbl	%al, %r9d
	movq	-8(%rbp), %rax
	movl	12(%rax), %eax
	cltq
	salq	$4, %rax
	movq	%rax, %rdx
	movq	-32(%rbp), %rax
	addq	%rdx, %rax
	movl	(%rax), %eax
	movzbl	%al, %r10d
	movq	-8(%rbp), %rax
	movl	8(%rax), %eax
	movswl	%ax, %ecx
	movq	-8(%rbp), %rax
	movl	32(%rax), %eax
	movswl	%ax, %edx
	movq	-8(%rbp), %rax
	movl	28(%rax), %eax
	movswl	%ax, %esi
	movq	g_pRenderer(%rip), %rax
	pushq	%r8
	pushq	%rdi
	movl	%r10d, %r8d
	movq	%rax, %rdi
	call	filledCircleRGBA@PLT
	addq	$16, %rsp
	jmp	.L38
.L37:
	.loc 1 103 0
	movq	-8(%rbp), %rax
	movl	$50000, 28(%rax)
	.loc 1 104 0
	movq	-8(%rbp), %rax
	movl	$50000, 32(%rax)
.L38:
	.loc 1 108 0 discriminator 2
	movq	-8(%rbp), %rax
	movl	-16(%rbp), %edx
	movl	%edx, 12(%rax)
	.loc 1 85 0 discriminator 2
	movq	-8(%rbp), %rax
	movq	64(%rax), %rax
	movq	%rax, -8(%rbp)
.L34:
	.loc 1 85 0 is_stmt 0 discriminator 1
	cmpq	$0, -8(%rbp)
	jne	.L39
	.loc 1 110 0 is_stmt 1
	nop
	leave
	.cfi_def_cfa 7, 8
	ret
	.cfi_endproc
.LFE3674:
	.size	trajectoriaComb, .-trajectoriaComb
	.section	.rodata
.LC2:
	.string	"ComboioSim"
	.align 8
.LC3:
	.string	"ERRO, COMBOIOS INICIADOS PARA AL\303\211M DA DIST\303\202NCIA DE SEGURAN\303\207A "
	.text
	.globl	abreJanela
	.type	abreJanela, @function
abreJanela:
.LFB3675:
	.loc 1 111 0
	.cfi_startproc
	pushq	%rbp
	.cfi_def_cfa_offset 16
	.cfi_offset 6, -16
	movq	%rsp, %rbp
	.cfi_def_cfa_register 6
	subq	$48, %rsp
	movq	%rdi, -24(%rbp)
	movq	%rsi, -32(%rbp)
	movq	%rdx, -40(%rbp)
	movq	%rcx, -48(%rbp)
	.loc 1 113 0
	movl	$62001, %edi
	call	SDL_Init@PLT
	.loc 1 116 0
	movl	$1, -4(%rbp)
	.loc 1 119 0
	movl	$62001, %edi
	call	SDL_Init@PLT
	testl	%eax, %eax
	js	.L41
	.loc 1 123 0
	movq	-24(%rbp), %rax
	addq	$4, %rax
	.loc 1 122 0
	movl	(%rax), %edx
	movq	-24(%rbp), %rax
	movl	(%rax), %eax
	movl	$4, %r9d
	movl	%edx, %r8d
	movl	%eax, %ecx
	movl	$805240832, %edx
	movl	$805240832, %esi
	leaq	.LC2(%rip), %rdi
	call	SDL_CreateWindow@PLT
	movq	%rax, g_pWindow(%rip)
	.loc 1 125 0
	movq	g_pWindow(%rip), %rax
	testq	%rax, %rax
	je	.L43
	.loc 1 126 0
	movq	g_pWindow(%rip), %rax
	movl	$0, %edx
	movl	$-1, %esi
	movq	%rax, %rdi
	call	SDL_CreateRenderer@PLT
	movq	%rax, g_pRenderer(%rip)
	jmp	.L43
.L41:
	.loc 1 129 0
	movl	$0, %edi
	call	exit@PLT
.L43:
	.loc 1 131 0
	movq	-48(%rbp), %rax
	addq	$144, %rax
	movl	12(%rax), %eax
	movzbl	%al, %edi
	movq	-48(%rbp), %rax
	addq	$144, %rax
	movl	8(%rax), %eax
	movzbl	%al, %ecx
	movq	-48(%rbp), %rax
	addq	$144, %rax
	movl	4(%rax), %eax
	movzbl	%al, %edx
	movq	-48(%rbp), %rax
	addq	$144, %rax
	movl	(%rax), %eax
	movzbl	%al, %esi
	movq	g_pRenderer(%rip), %rax
	movl	%edi, %r8d
	movq	%rax, %rdi
	call	SDL_SetRenderDrawColor@PLT
	.loc 1 133 0
	movq	g_pRenderer(%rip), %rax
	movq	%rax, %rdi
	call	SDL_RenderClear@PLT
	.loc 1 135 0
	movq	-40(%rbp), %rax
	movq	%rax, %rdi
	call	SDL_unepontos
	.loc 1 136 0
	movq	-48(%rbp), %rdx
	movq	-40(%rbp), %rax
	movq	%rdx, %rsi
	movq	%rax, %rdi
	call	SDL_escrevePontos
	.loc 1 137 0
	movq	-40(%rbp), %rdx
	movq	-48(%rbp), %rcx
	movq	-32(%rbp), %rax
	movq	%rcx, %rsi
	movq	%rax, %rdi
	call	InicComboios
	cmpl	$1, %eax
	jne	.L44
	.loc 1 138 0
	leaq	.LC3(%rip), %rdi
	call	puts@PLT
	.loc 1 140 0
	movq	g_pRenderer(%rip), %rax
	movq	%rax, %rdi
	call	SDL_DestroyRenderer@PLT
	.loc 1 141 0
	movq	$0, g_pRenderer(%rip)
	.loc 1 143 0
	call	SDL_Quit@PLT
	.loc 1 146 0
	jmp	.L40
.L44:
	.loc 1 149 0
	movq	g_pRenderer(%rip), %rax
	movq	%rax, %rdi
	call	SDL_RenderPresent@PLT
	.loc 1 151 0
	movl	$1000, %edi
	call	SDL_Delay@PLT
.L49:
	.loc 1 155 0
	movq	-48(%rbp), %rax
	addq	$144, %rax
	movl	12(%rax), %eax
	movzbl	%al, %edi
	movq	-48(%rbp), %rax
	addq	$144, %rax
	movl	8(%rax), %eax
	movzbl	%al, %ecx
	movq	-48(%rbp), %rax
	addq	$144, %rax
	movl	4(%rax), %eax
	movzbl	%al, %edx
	movq	-48(%rbp), %rax
	addq	$144, %rax
	movl	(%rax), %eax
	movzbl	%al, %esi
	movq	g_pRenderer(%rip), %rax
	movl	%edi, %r8d
	movq	%rax, %rdi
	call	SDL_SetRenderDrawColor@PLT
	.loc 1 157 0
	movq	g_pRenderer(%rip), %rax
	movq	%rax, %rdi
	call	SDL_RenderClear@PLT
	.loc 1 159 0
	movq	-24(%rbp), %rax
	movq	%rax, %rdi
	call	SDL_desenhaButoesHUD
	.loc 1 160 0
	movq	-40(%rbp), %rax
	movq	%rax, %rdi
	call	SDL_unepontos
	.loc 1 161 0
	movq	-48(%rbp), %rdx
	movq	-40(%rbp), %rax
	movq	%rdx, %rsi
	movq	%rax, %rdi
	call	SDL_escrevePontos
	.loc 1 165 0
	movq	-32(%rbp), %rax
	movq	%rax, %rdi
	call	verificaColisoes@PLT
	.loc 1 166 0
	movl	$0, -8(%rbp)
	jmp	.L46
.L48:
	.loc 1 169 0 discriminator 4
	movl	-8(%rbp), %eax
	cltq
	leaq	0(,%rax,8), %rdx
	movq	-32(%rbp), %rax
	addq	%rdx, %rax
	movq	(%rax), %rax
	movq	-40(%rbp), %rdx
	movq	-48(%rbp), %rcx
	movq	%rcx, %rsi
	movq	%rax, %rdi
	call	trajectoriaComb
	.loc 1 166 0 discriminator 4
	addl	$1, -8(%rbp)
.L46:
	.loc 1 166 0 is_stmt 0 discriminator 1
	cmpl	$199, -8(%rbp)
	jg	.L47
	.loc 1 166 0 discriminator 3
	movl	-8(%rbp), %eax
	cltq
	leaq	0(,%rax,8), %rdx
	movq	-32(%rbp), %rax
	addq	%rdx, %rax
	movq	(%rax), %rax
	testq	%rax, %rax
	jne	.L48
.L47:
	.loc 1 177 0 is_stmt 1
	movq	g_pRenderer(%rip), %rax
	movq	%rax, %rdi
	call	SDL_RenderPresent@PLT
	.loc 1 187 0
	cmpl	$0, -4(%rbp)
	jne	.L49
	.loc 1 189 0
	movl	$6000, %edi
	call	SDL_Delay@PLT
	.loc 1 192 0
	movq	g_pRenderer(%rip), %rax
	movq	%rax, %rdi
	call	SDL_DestroyRenderer@PLT
	.loc 1 193 0
	movq	$0, g_pRenderer(%rip)
	.loc 1 195 0
	call	SDL_Quit@PLT
	.loc 1 198 0
	nop
.L40:
	.loc 1 204 0
	leave
	.cfi_def_cfa 7, 8
	ret
	.cfi_endproc
.LFE3675:
	.size	abreJanela, .-abreJanela
	.globl	SDL_unepontos
	.type	SDL_unepontos, @function
SDL_unepontos:
.LFB3676:
	.loc 1 205 0
	.cfi_startproc
	pushq	%rbp
	.cfi_def_cfa_offset 16
	.cfi_offset 6, -16
	movq	%rsp, %rbp
	.cfi_def_cfa_register 6
	subq	$48, %rsp
	movq	%rdi, -40(%rbp)
	.loc 1 210 0
	movl	$0, -20(%rbp)
	jmp	.L51
.L53:
	.loc 1 212 0 discriminator 4
	movl	-20(%rbp), %eax
	cltq
	leaq	0(,%rax,8), %rdx
	movq	-40(%rbp), %rax
	addq	%rdx, %rax
	movq	(%rax), %rax
	movq	%rax, -16(%rbp)
	.loc 1 213 0 discriminator 4
	movl	-20(%rbp), %eax
	cltq
	leaq	0(,%rax,8), %rdx
	movq	-40(%rbp), %rax
	addq	%rdx, %rax
	movq	(%rax), %rax
	movq	48(%rax), %rax
	movq	%rax, -8(%rbp)
	.loc 1 215 0 discriminator 4
	movq	-8(%rbp), %rdx
	movq	-16(%rbp), %rax
	movq	%rdx, %rsi
	movq	%rax, %rdi
	call	for_pontos
	.loc 1 210 0 discriminator 4
	addl	$1, -20(%rbp)
.L51:
	.loc 1 210 0 is_stmt 0 discriminator 1
	movl	-20(%rbp), %eax
	cltq
	leaq	0(,%rax,8), %rdx
	movq	-40(%rbp), %rax
	addq	%rdx, %rax
	movq	(%rax), %rax
	testq	%rax, %rax
	je	.L54
	.loc 1 210 0 discriminator 3
	cmpl	$199, -20(%rbp)
	jle	.L53
.L54:
	.loc 1 219 0 is_stmt 1
	nop
	leave
	.cfi_def_cfa 7, 8
	ret
	.cfi_endproc
.LFE3676:
	.size	SDL_unepontos, .-SDL_unepontos
	.globl	SDL_escrevePontos
	.type	SDL_escrevePontos, @function
SDL_escrevePontos:
.LFB3677:
	.loc 1 220 0
	.cfi_startproc
	pushq	%rbp
	.cfi_def_cfa_offset 16
	.cfi_offset 6, -16
	movq	%rsp, %rbp
	.cfi_def_cfa_register 6
	subq	$240, %rsp
	movq	%rdi, -232(%rbp)
	movq	%rsi, -240(%rbp)
	.loc 1 220 0
	movq	%fs:40, %rax
	movq	%rax, -8(%rbp)
	xorl	%eax, %eax
	.loc 1 226 0
	movl	$0, -220(%rbp)
	jmp	.L56
.L61:
	.loc 1 227 0
	movl	-220(%rbp), %eax
	cltq
	leaq	0(,%rax,8), %rdx
	movq	-232(%rbp), %rax
	addq	%rdx, %rax
	movq	(%rax), %rax
	movq	%rax, %rdx
	leaq	-208(%rbp), %rax
	movq	%rdx, %rsi
	movq	%rax, %rdi
	call	strcpy@PLT
	.loc 1 229 0
	movl	-220(%rbp), %eax
	cltq
	leaq	0(,%rax,8), %rdx
	movq	-232(%rbp), %rax
	addq	%rdx, %rax
	movq	(%rax), %rax
	movq	%rax, -216(%rbp)
	jmp	.L57
.L59:
	.loc 1 233 0 discriminator 4
	movq	-216(%rbp), %rax
	movl	24(%rax), %eax
	cltq
	salq	$4, %rax
	movq	%rax, %rdx
	movq	-240(%rbp), %rax
	addq	%rdx, %rax
	movl	12(%rax), %eax
	movzbl	%al, %r8d
	movq	-216(%rbp), %rax
	movl	24(%rax), %eax
	cltq
	salq	$4, %rax
	movq	%rax, %rdx
	movq	-240(%rbp), %rax
	addq	%rdx, %rax
	movl	8(%rax), %eax
	movzbl	%al, %edi
	movq	-216(%rbp), %rax
	movl	24(%rax), %eax
	cltq
	salq	$4, %rax
	movq	%rax, %rdx
	movq	-240(%rbp), %rax
	addq	%rdx, %rax
	movl	4(%rax), %eax
	movzbl	%al, %r9d
	movq	-216(%rbp), %rax
	movl	24(%rax), %eax
	cltq
	salq	$4, %rax
	movq	%rax, %rdx
	movq	-240(%rbp), %rax
	addq	%rdx, %rax
	movl	(%rax), %eax
	movzbl	%al, %r10d
	movq	-216(%rbp), %rax
	movl	32(%rax), %eax
	movswl	%ax, %ecx
	movq	-216(%rbp), %rax
	movl	20(%rax), %eax
	movswl	%ax, %edx
	movq	-216(%rbp), %rax
	movl	16(%rax), %eax
	movswl	%ax, %esi
	movq	g_pRenderer(%rip), %rax
	pushq	%r8
	pushq	%rdi
	movl	%r10d, %r8d
	movq	%rax, %rdi
	call	filledCircleRGBA@PLT
	addq	$16, %rsp
	.loc 1 234 0 discriminator 4
	movq	-216(%rbp), %rax
	movl	32(%rax), %eax
	movswl	%ax, %ecx
	movq	-216(%rbp), %rax
	movl	20(%rax), %eax
	movswl	%ax, %edx
	movq	-216(%rbp), %rax
	movl	16(%rax), %eax
	movswl	%ax, %esi
	movq	g_pRenderer(%rip), %rax
	pushq	$255
	pushq	$0
	movl	$0, %r9d
	movl	$0, %r8d
	movq	%rax, %rdi
	call	circleRGBA@PLT
	addq	$16, %rsp
	.loc 1 229 0 discriminator 4
	movq	-216(%rbp), %rax
	movq	48(%rax), %rax
	movq	%rax, -216(%rbp)
.L57:
	.loc 1 229 0 is_stmt 0 discriminator 1
	cmpq	$0, -216(%rbp)
	je	.L58
	.loc 1 229 0 discriminator 3
	movq	-216(%rbp), %rdx
	leaq	-208(%rbp), %rax
	movq	%rdx, %rsi
	movq	%rax, %rdi
	call	strcmp@PLT
	testl	%eax, %eax
	je	.L59
.L58:
	.loc 1 226 0 is_stmt 1 discriminator 2
	addl	$1, -220(%rbp)
.L56:
	.loc 1 226 0 is_stmt 0 discriminator 1
	cmpl	$199, -220(%rbp)
	jg	.L63
	.loc 1 226 0 discriminator 3
	movl	-220(%rbp), %eax
	cltq
	leaq	0(,%rax,8), %rdx
	movq	-232(%rbp), %rax
	addq	%rdx, %rax
	movq	(%rax), %rax
	testq	%rax, %rax
	jne	.L61
.L63:
	.loc 1 242 0 is_stmt 1
	nop
	movq	-8(%rbp), %rax
	xorq	%fs:40, %rax
	je	.L62
	call	__stack_chk_fail@PLT
.L62:
	leave
	.cfi_def_cfa 7, 8
	ret
	.cfi_endproc
.LFE3677:
	.size	SDL_escrevePontos, .-SDL_escrevePontos
	.globl	for_pontos
	.type	for_pontos, @function
for_pontos:
.LFB3678:
	.loc 1 243 0
	.cfi_startproc
	pushq	%rbp
	.cfi_def_cfa_offset 16
	.cfi_offset 6, -16
	movq	%rsp, %rbp
	.cfi_def_cfa_register 6
	subq	$240, %rsp
	movq	%rdi, -232(%rbp)
	movq	%rsi, -240(%rbp)
	.loc 1 243 0
	movq	%fs:40, %rax
	movq	%rax, -8(%rbp)
	xorl	%eax, %eax
	.loc 1 247 0
	movq	-232(%rbp), %rdx
	leaq	-208(%rbp), %rax
	movq	%rdx, %rsi
	movq	%rax, %rdi
	call	strcpy@PLT
	.loc 1 249 0
	jmp	.L65
.L68:
	.loc 1 250 0
	movq	g_pRenderer(%rip), %rax
	movl	$255, %r8d
	movl	$0, %ecx
	movl	$0, %edx
	movl	$0, %esi
	movq	%rax, %rdi
	call	SDL_SetRenderDrawColor@PLT
	.loc 1 251 0
	movq	-240(%rbp), %rax
	movl	20(%rax), %edi
	movq	-240(%rbp), %rax
	movl	16(%rax), %ecx
	movq	-232(%rbp), %rax
	movl	20(%rax), %edx
	movq	-232(%rbp), %rax
	movl	16(%rax), %esi
	movq	g_pRenderer(%rip), %rax
	movl	%edi, %r8d
	movq	%rax, %rdi
	call	SDL_RenderDrawLine@PLT
	.loc 1 253 0
	movq	-232(%rbp), %rax
	movq	56(%rax), %rax
	testq	%rax, %rax
	je	.L66
	.loc 1 254 0
	movq	-232(%rbp), %rax
	movq	56(%rax), %rax
	movq	%rax, -224(%rbp)
	.loc 1 255 0
	movq	g_pRenderer(%rip), %rax
	movl	$255, %r8d
	movl	$0, %ecx
	movl	$0, %edx
	movl	$255, %esi
	movq	%rax, %rdi
	call	SDL_SetRenderDrawColor@PLT
	.loc 1 256 0
	movq	-224(%rbp), %rax
	movl	20(%rax), %edi
	movq	-224(%rbp), %rax
	movl	16(%rax), %ecx
	movq	-232(%rbp), %rax
	movl	20(%rax), %edx
	movq	-232(%rbp), %rax
	movl	16(%rax), %esi
	movq	g_pRenderer(%rip), %rax
	movl	%edi, %r8d
	movq	%rax, %rdi
	call	SDL_RenderDrawLine@PLT
	.loc 1 258 0
	movq	-224(%rbp), %rdx
	movq	-232(%rbp), %rax
	movq	%rdx, %rsi
	movq	%rax, %rdi
	call	strcmp@PLT
	testl	%eax, %eax
	jne	.L66
	.loc 1 258 0 is_stmt 0 discriminator 1
	movq	-224(%rbp), %rax
	movq	48(%rax), %rax
	testq	%rax, %rax
	je	.L66
	.loc 1 259 0 is_stmt 1
	movq	-224(%rbp), %rax
	movq	%rax, -216(%rbp)
	.loc 1 260 0
	movq	-224(%rbp), %rax
	movq	48(%rax), %rax
	movq	%rax, -224(%rbp)
	.loc 1 261 0
	movq	-224(%rbp), %rdx
	movq	-216(%rbp), %rax
	movq	%rdx, %rsi
	movq	%rax, %rdi
	call	for_pontos
.L66:
	.loc 1 249 0
	movq	-232(%rbp), %rax
	movq	48(%rax), %rax
	movq	%rax, -232(%rbp)
	movq	-240(%rbp), %rax
	movq	48(%rax), %rax
	movq	%rax, -240(%rbp)
.L65:
	.loc 1 249 0 is_stmt 0 discriminator 1
	cmpq	$0, -232(%rbp)
	je	.L70
	.loc 1 249 0 discriminator 2
	cmpq	$0, -240(%rbp)
	je	.L70
	.loc 1 249 0 discriminator 3
	movq	-232(%rbp), %rax
	leaq	-208(%rbp), %rdx
	movq	%rdx, %rsi
	movq	%rax, %rdi
	call	strcmp@PLT
	testl	%eax, %eax
	je	.L68
.L70:
	.loc 1 268 0 is_stmt 1
	nop
	movq	-8(%rbp), %rax
	xorq	%fs:40, %rax
	je	.L69
	call	__stack_chk_fail@PLT
.L69:
	leave
	.cfi_def_cfa 7, 8
	ret
	.cfi_endproc
.LFE3678:
	.size	for_pontos, .-for_pontos
	.globl	SDL_desenhaButoesHUD
	.type	SDL_desenhaButoesHUD, @function
SDL_desenhaButoesHUD:
.LFB3679:
	.loc 1 269 0
	.cfi_startproc
	pushq	%rbp
	.cfi_def_cfa_offset 16
	.cfi_offset 6, -16
	movq	%rsp, %rbp
	.cfi_def_cfa_register 6
	subq	$80, %rsp
	movq	%rdi, -72(%rbp)
	.loc 1 269 0
	movq	%fs:40, %rax
	movq	%rax, -8(%rbp)
	xorl	%eax, %eax
	.loc 1 272 0
	movq	-72(%rbp), %rax
	movl	(%rax), %eax
	subl	$75, %eax
	movl	%eax, -64(%rbp)
	.loc 1 273 0
	movq	-72(%rbp), %rax
	addq	$4, %rax
	movl	(%rax), %eax
	subl	$45, %eax
	movl	%eax, -60(%rbp)
	.loc 1 274 0
	movl	$40, -56(%rbp)
	.loc 1 275 0
	movl	$20, -52(%rbp)
	.loc 1 278 0
	movq	-72(%rbp), %rax
	movl	(%rax), %eax
	subl	$75, %eax
	movl	%eax, -64(%rbp)
	.loc 1 279 0
	movq	-72(%rbp), %rax
	addq	$4, %rax
	movl	(%rax), %eax
	subl	$75, %eax
	movl	%eax, -60(%rbp)
	.loc 1 280 0
	movl	$40, -56(%rbp)
	.loc 1 281 0
	movl	$20, -52(%rbp)
	.loc 1 284 0
	movq	-72(%rbp), %rax
	movl	(%rax), %eax
	subl	$75, %eax
	movl	%eax, -64(%rbp)
	.loc 1 285 0
	movq	-72(%rbp), %rax
	addq	$4, %rax
	movl	(%rax), %eax
	subl	$105, %eax
	movl	%eax, -60(%rbp)
	.loc 1 286 0
	movl	$40, -56(%rbp)
	.loc 1 287 0
	movl	$20, -52(%rbp)
	.loc 1 289 0
	movq	g_pRenderer(%rip), %rax
	movl	$100, %r8d
	movl	$100, %ecx
	movl	$255, %edx
	movl	$200, %esi
	movq	%rax, %rdi
	call	SDL_SetRenderDrawColor@PLT
	.loc 1 292 0
	movq	g_pRenderer(%rip), %rax
	leaq	-64(%rbp), %rdx
	movq	%rdx, %rsi
	movq	%rax, %rdi
	call	SDL_RenderDrawRect@PLT
	.loc 1 293 0
	movq	g_pRenderer(%rip), %rax
	leaq	-64(%rbp), %rdx
	movq	%rdx, %rsi
	movq	%rax, %rdi
	call	SDL_RenderFillRect@PLT
	.loc 1 294 0
	movq	g_pRenderer(%rip), %rax
	leaq	-48(%rbp), %rdx
	movq	%rdx, %rsi
	movq	%rax, %rdi
	call	SDL_RenderDrawRect@PLT
	.loc 1 295 0
	movq	g_pRenderer(%rip), %rax
	leaq	-48(%rbp), %rdx
	movq	%rdx, %rsi
	movq	%rax, %rdi
	call	SDL_RenderFillRect@PLT
	.loc 1 296 0
	movq	g_pRenderer(%rip), %rax
	leaq	-32(%rbp), %rdx
	movq	%rdx, %rsi
	movq	%rax, %rdi
	call	SDL_RenderDrawRect@PLT
	.loc 1 297 0
	movq	g_pRenderer(%rip), %rax
	leaq	-32(%rbp), %rdx
	movq	%rdx, %rsi
	movq	%rax, %rdi
	call	SDL_RenderFillRect@PLT
	.loc 1 299 0
	nop
	movq	-8(%rbp), %rax
	xorq	%fs:40, %rax
	je	.L72
	call	__stack_chk_fail@PLT
.L72:
	leave
	.cfi_def_cfa 7, 8
	ret
	.cfi_endproc
.LFE3679:
	.size	SDL_desenhaButoesHUD, .-SDL_desenhaButoesHUD
.Letext0:
	.file 2 "/usr/lib/gcc/x86_64-linux-gnu/7/include/stddef.h"
	.file 3 "/usr/include/x86_64-linux-gnu/bits/types.h"
	.file 4 "/usr/include/x86_64-linux-gnu/bits/libio.h"
	.file 5 "/usr/include/stdio.h"
	.file 6 "/usr/include/x86_64-linux-gnu/bits/stdint-uintn.h"
	.file 7 "/usr/local/include/SDL2/SDL_stdinc.h"
	.file 8 "/usr/local/include/SDL2/SDL_pixels.h"
	.file 9 "/usr/local/include/SDL2/SDL_rect.h"
	.file 10 "/usr/local/include/SDL2/SDL_video.h"
	.file 11 "/usr/local/include/SDL2/SDL_scancode.h"
	.file 12 "/usr/local/include/SDL2/SDL_messagebox.h"
	.file 13 "/usr/local/include/SDL2/SDL_render.h"
	.file 14 "/usr/include/time.h"
	.file 15 "/media/sf_Prog/ProjetoFinal/comboios.h"
	.section	.note.GNU-stack,"",@progbits
